; Function Attrs: nounwind uwtable
define void @_ZTv0_n24_N5osgeo4proj3crs14EngineeringCRSD0Ev(ptr noundef %0) unnamed_addr #4 align 2 personality ptr @__gxx_personality_v0 {
  %2 = load ptr, ptr %0, align 8
  %3 = getelementptr inbounds i8, ptr %2, i64 -24
  %4 = load i64, ptr %3, align 8
  %5 = getelementptr inbounds i8, ptr %0, i64 %4
  store ptr getelementptr inbounds inrange(-24, 48) ({ [9 x ptr], [15 x ptr], [5 x ptr], [5 x ptr], [5 x ptr] }, ptr @_ZTVN5osgeo4proj3crs14EngineeringCRSE, i64 0, i32 0, i64 3), ptr %5, align 8
  %6 = getelementptr inbounds i8, ptr %5, i64 16
  store ptr getelementptr inbounds inrange(-72, 48) ({ [9 x ptr], [15 x ptr], [5 x ptr], [5 x ptr], [5 x ptr] }, ptr @_ZTVN5osgeo4proj3crs14EngineeringCRSE, i64 0, i32 1, i64 9), ptr %6, align 8
  %7 = getelementptr i8, ptr %5, i64 32
  store ptr getelementptr inbounds inrange(-16, 24) ({ [9 x ptr], [15 x ptr], [5 x ptr], [5 x ptr], [5 x ptr] }, ptr @_ZTVN5osgeo4proj3crs14EngineeringCRSE, i64 0, i32 2, i64 2), ptr %7, align 8
  %8 = getelementptr i8, ptr %5, i64 40
  store ptr getelementptr inbounds inrange(-16, 24) ({ [9 x ptr], [15 x ptr], [5 x ptr], [5 x ptr], [5 x ptr] }, ptr @_ZTVN5osgeo4proj3crs14EngineeringCRSE, i64 0, i32 3, i64 2), ptr %8, align 8
  %9 = getelementptr i8, ptr %5, i64 64
  store ptr getelementptr inbounds inrange(-16, 24) ({ [9 x ptr], [15 x ptr], [5 x ptr], [5 x ptr], [5 x ptr] }, ptr @_ZTVN5osgeo4proj3crs14EngineeringCRSE, i64 0, i32 4, i64 2), ptr %9, align 8
  %10 = getelementptr inbounds i8, ptr %5, i64 8
  %11 = load ptr, ptr %10, align 8
  %.not.i.i.i.i = icmp eq ptr %11, null
  br i1 %.not.i.i.i.i, label %_ZN5osgeo4proj3crs14EngineeringCRSD0Ev.exit, label %_ZNKSt14default_deleteIN5osgeo4proj3crs14EngineeringCRS7PrivateEEclEPS4_.exit.i.i.i.i

_ZNKSt14default_deleteIN5osgeo4proj3crs14EngineeringCRS7PrivateEEclEPS4_.exit.i.i.i.i: ; preds = %1
  tail call void @_ZdlPv(ptr noundef nonnull %11) #36
  br label %_ZN5osgeo4proj3crs14EngineeringCRSD0Ev.exit

_ZN5osgeo4proj3crs14EngineeringCRSD0Ev.exit:      ; preds = %1, %_ZNKSt14default_deleteIN5osgeo4proj3crs14EngineeringCRS7PrivateEEclEPS4_.exit.i.i.i.i
  store ptr null, ptr %10, align 8
  tail call void @_ZN5osgeo4proj3crs9SingleCRSD2Ev(ptr noundef nonnull align 8 dereferenceable(72) %6) #37
  tail call void @_ZdlPv(ptr noundef nonnull %5) #36
  ret void
}